; ModuleID = '58/1111.c'
source_filename = "58/1111.c"
target datalayout = "e-m:e-p270:32:32-p271:32:32-p272:64:64-i64:64-f80:128-n8:16:32:64-S128"
target triple = "x86_64-pc-linux-gnu"

@.str = private unnamed_addr constant [3 x i8] c"%d\00", align 1
@.str.1 = private unnamed_addr constant [4 x i8] c"%d\0A\00", align 1

; Function Attrs: noinline nounwind uwtable
define dso_local i32 @main() #0 {
  %1 = alloca i32, align 4
  %2 = alloca i32, align 4
  %3 = alloca i32, align 4
  %4 = alloca i32, align 4
  %5 = alloca i32, align 4
  %6 = alloca i32, align 4
  %7 = alloca i32, align 4
  %8 = alloca i32, align 4
  %9 = alloca i8*, align 8
  %10 = alloca [81 x i8], align 16
  store i32 0, i32* %1, align 4
  store i32 1, i32* %7, align 4
  store i32 0, i32* %8, align 4
  %11 = call i32 (i8*, ...) @__isoc99_scanf(i8* getelementptr inbounds ([3 x i8], [3 x i8]* @.str, i64 0, i64 0), i32* %2)
  %12 = call i32 @getchar()
  store i32 0, i32* %4, align 4
  br label %13

13:                                               ; preds = %95, %0
  %14 = load i32, i32* %4, align 4
  %15 = load i32, i32* %2, align 4
  %16 = icmp slt i32 %14, %15
  br i1 %16, label %17, label %98

17:                                               ; preds = %13
  store i32 0, i32* %6, align 4
  %18 = getelementptr inbounds [81 x i8], [81 x i8]* %10, i64 0, i64 0
  %19 = call i32 (i8*, ...) bitcast (i32 (...)* @gets to i32 (i8*, ...)*)(i8* %18)
  %20 = getelementptr inbounds [81 x i8], [81 x i8]* %10, i64 0, i64 0
  %21 = call i64 @strlen(i8* %20) #3
  %22 = trunc i64 %21 to i32
  store i32 %22, i32* %3, align 4
  %23 = getelementptr inbounds [81 x i8], [81 x i8]* %10, i64 0, i64 0
  store i8* %23, i8** %9, align 8
  %24 = load i8*, i8** %9, align 8
  %25 = load i8, i8* %24, align 1
  %26 = sext i8 %25 to i32
  %27 = icmp eq i32 %26, 95
  br i1 %27, label %38, label %28

28:                                               ; preds = %17
  %29 = load i8*, i8** %9, align 8
  %30 = load i8, i8* %29, align 1
  %31 = sext i8 %30 to i32
  %32 = icmp sge i32 %31, 65
  br i1 %32, label %33, label %91

33:                                               ; preds = %28
  %34 = load i8*, i8** %9, align 8
  %35 = load i8, i8* %34, align 1
  %36 = sext i8 %35 to i32
  %37 = icmp sle i32 %36, 122
  br i1 %37, label %38, label %91

38:                                               ; preds = %33, %17
  %39 = getelementptr inbounds [81 x i8], [81 x i8]* %10, i64 0, i64 0
  %40 = getelementptr inbounds i8, i8* %39, i64 1
  store i8* %40, i8** %9, align 8
  br label %41

41:                                               ; preds = %79, %38
  %42 = load i8*, i8** %9, align 8
  %43 = getelementptr inbounds [81 x i8], [81 x i8]* %10, i64 0, i64 0
  %44 = load i32, i32* %3, align 4
  %45 = sext i32 %44 to i64
  %46 = getelementptr inbounds i8, i8* %43, i64 %45
  %47 = icmp ult i8* %42, %46
  br i1 %47, label %48, label %82

48:                                               ; preds = %41
  %49 = load i8*, i8** %9, align 8
  %50 = load i8, i8* %49, align 1
  %51 = sext i8 %50 to i32
  %52 = icmp ne i32 %51, 95
  br i1 %52, label %53, label %76

53:                                               ; preds = %48
  %54 = load i8*, i8** %9, align 8
  %55 = load i8, i8* %54, align 1
  %56 = sext i8 %55 to i32
  %57 = icmp slt i32 %56, 48
  br i1 %57, label %73, label %58

58:                                               ; preds = %53
  %59 = load i8*, i8** %9, align 8
  %60 = load i8, i8* %59, align 1
  %61 = sext i8 %60 to i32
  %62 = icmp sgt i32 %61, 57
  br i1 %62, label %63, label %68

63:                                               ; preds = %58
  %64 = load i8*, i8** %9, align 8
  %65 = load i8, i8* %64, align 1
  %66 = sext i8 %65 to i32
  %67 = icmp slt i32 %66, 65
  br i1 %67, label %73, label %68

68:                                               ; preds = %63, %58
  %69 = load i8*, i8** %9, align 8
  %70 = load i8, i8* %69, align 1
  %71 = sext i8 %70 to i32
  %72 = icmp sgt i32 %71, 122
  br i1 %72, label %73, label %76

73:                                               ; preds = %68, %63, %53
  %74 = load i32, i32* %8, align 4
  %75 = call i32 (i8*, ...) @printf(i8* getelementptr inbounds ([4 x i8], [4 x i8]* @.str.1, i64 0, i64 0), i32 %74)
  br label %82

76:                                               ; preds = %68, %48
  %77 = load i32, i32* %6, align 4
  %78 = add nsw i32 %77, 1
  store i32 %78, i32* %6, align 4
  br label %79

79:                                               ; preds = %76
  %80 = load i8*, i8** %9, align 8
  %81 = getelementptr inbounds i8, i8* %80, i32 1
  store i8* %81, i8** %9, align 8
  br label %41

82:                                               ; preds = %73, %41
  %83 = load i32, i32* %6, align 4
  %84 = load i32, i32* %3, align 4
  %85 = sub nsw i32 %84, 1
  %86 = icmp eq i32 %83, %85
  br i1 %86, label %87, label %90

87:                                               ; preds = %82
  %88 = load i32, i32* %7, align 4
  %89 = call i32 (i8*, ...) @printf(i8* getelementptr inbounds ([4 x i8], [4 x i8]* @.str.1, i64 0, i64 0), i32 %88)
  br label %90

90:                                               ; preds = %87, %82
  br label %94

91:                                               ; preds = %33, %28
  %92 = load i32, i32* %8, align 4
  %93 = call i32 (i8*, ...) @printf(i8* getelementptr inbounds ([4 x i8], [4 x i8]* @.str.1, i64 0, i64 0), i32 %92)
  br label %94

94:                                               ; preds = %91, %90
  br label %95

95:                                               ; preds = %94
  %96 = load i32, i32* %4, align 4
  %97 = add nsw i32 %96, 1
  store i32 %97, i32* %4, align 4
  br label %13

98:                                               ; preds = %13
  ret i32 0
}

declare dso_local i32 @__isoc99_scanf(i8*, ...) #1

declare dso_local i32 @getchar() #1

declare dso_local i32 @gets(...) #1

; Function Attrs: nounwind readonly
declare dso_local i64 @strlen(i8*) #2

declare dso_local i32 @printf(i8*, ...) #1


!llvm.module.flags = !{!0}
!llvm.ident = !{!1}

!0 = !{i32 1, !"wchar_size", i32 4}
!1 = !{!"clang version 10.0.0-4ubuntu1 "}
