; ModuleID = 'source-C-CXX/57/1111.c'
source_filename = "source-C-CXX/57/1111.c"
target datalayout = "e-m:e-p270:32:32-p271:32:32-p272:64:64-i64:64-f80:128-n8:16:32:64-S128"
target triple = "x86_64-pc-linux-gnu"

%struct._IO_FILE = type { i32, i8*, i8*, i8*, i8*, i8*, i8*, i8*, i8*, i8*, i8*, i8*, %struct._IO_marker*, %struct._IO_FILE*, i32, i32, i64, i16, i8, [1 x i8], i8*, i64, %struct._IO_codecvt*, %struct._IO_wide_data*, %struct._IO_FILE*, i8*, i64, i32, [20 x i8] }
%struct._IO_marker = type opaque
%struct._IO_codecvt = type opaque
%struct._IO_wide_data = type opaque

@.str = private unnamed_addr constant [3 x i8] c"%d\00", align 1
@.str.1 = private unnamed_addr constant [4 x i8] c"%d\0A\00", align 1
@stdin = external local_unnamed_addr global %struct._IO_FILE*, align 8

; Function Attrs: nounwind sspstrong uwtable
define dso_local i32 @main() local_unnamed_addr #0 {
  %1 = alloca i32, align 4
  %2 = alloca [81 x i8], align 16
  %3 = bitcast i32* %1 to i8*
  call void @llvm.lifetime.start.p0i8(i64 4, i8* nonnull %3) #5
  %4 = getelementptr inbounds [81 x i8], [81 x i8]* %2, i64 0, i64 0
  call void @llvm.lifetime.start.p0i8(i64 81, i8* nonnull %4) #5
  %5 = call i32 (i8*, ...) @__isoc99_scanf(i8* getelementptr inbounds ([3 x i8], [3 x i8]* @.str, i64 0, i64 0), i32* nonnull %1)
  %6 = load %struct._IO_FILE*, %struct._IO_FILE** @stdin, align 8, !tbaa !5
  %7 = call i32 @getc(%struct._IO_FILE* %6) #5
  %8 = getelementptr inbounds [81 x i8], [81 x i8]* %2, i64 0, i64 1
  %9 = load i32, i32* %1, align 4, !tbaa !9
  %10 = icmp sgt i32 %9, 0
  br i1 %10, label %11, label %51

11:                                               ; preds = %0, %47
  %12 = phi i32 [ %48, %47 ], [ 0, %0 ]
  %13 = call i32 (i8*, ...) bitcast (i32 (...)* @gets to i32 (i8*, ...)*)(i8* nonnull %4) #5
  %14 = call i64 @strlen(i8* noundef nonnull %4) #6
  %15 = trunc i64 %14 to i32
  %16 = load i8, i8* %4, align 16, !tbaa !11
  %17 = icmp eq i8 %16, 95
  %18 = add i8 %16, -65
  %19 = icmp ult i8 %18, 58
  %20 = or i1 %17, %19
  br i1 %20, label %21, label %44

21:                                               ; preds = %11
  %22 = shl i64 %14, 32
  %23 = ashr exact i64 %22, 32
  %24 = getelementptr inbounds [81 x i8], [81 x i8]* %2, i64 0, i64 %23
  %25 = icmp sgt i64 %22, 4294967296
  br i1 %25, label %26, label %40

26:                                               ; preds = %21, %36
  %27 = phi i8* [ %38, %36 ], [ %8, %21 ]
  %28 = phi i32 [ %37, %36 ], [ 0, %21 ]
  %29 = load i8, i8* %27, align 1, !tbaa !11
  %30 = icmp eq i8 %29, 95
  br i1 %30, label %36, label %31

31:                                               ; preds = %26
  %32 = icmp slt i8 %29, 48
  br i1 %32, label %34, label %33

33:                                               ; preds = %31
  switch i8 %29, label %36 [
    i8 127, label %34
    i8 126, label %34
    i8 125, label %34
    i8 124, label %34
    i8 123, label %34
    i8 64, label %34
    i8 63, label %34
    i8 62, label %34
    i8 61, label %34
    i8 60, label %34
    i8 59, label %34
    i8 58, label %34
  ]

34:                                               ; preds = %33, %33, %33, %33, %33, %33, %33, %33, %33, %33, %33, %33, %31
  %35 = call i32 (i8*, ...) @printf(i8* nonnull dereferenceable(1) getelementptr inbounds ([4 x i8], [4 x i8]* @.str.1, i64 0, i64 0), i32 0)
  br label %40

36:                                               ; preds = %33, %26
  %37 = add nuw nsw i32 %28, 1
  %38 = getelementptr inbounds i8, i8* %27, i64 1
  %39 = icmp ult i8* %38, %24
  br i1 %39, label %26, label %40, !llvm.loop !12

40:                                               ; preds = %36, %21, %34
  %41 = phi i32 [ %28, %34 ], [ 0, %21 ], [ %37, %36 ]
  %42 = add nsw i32 %15, -1
  %43 = icmp eq i32 %41, %42
  br i1 %43, label %44, label %47

44:                                               ; preds = %11, %40
  %45 = phi i32 [ 1, %40 ], [ 0, %11 ]
  %46 = call i32 (i8*, ...) @printf(i8* nonnull dereferenceable(1) getelementptr inbounds ([4 x i8], [4 x i8]* @.str.1, i64 0, i64 0), i32 %45)
  br label %47

47:                                               ; preds = %44, %40
  %48 = add nuw nsw i32 %12, 1
  %49 = load i32, i32* %1, align 4, !tbaa !9
  %50 = icmp slt i32 %48, %49
  br i1 %50, label %11, label %51, !llvm.loop !14

51:                                               ; preds = %47, %0
  call void @llvm.lifetime.end.p0i8(i64 81, i8* nonnull %4) #5
  call void @llvm.lifetime.end.p0i8(i64 4, i8* nonnull %3) #5
  ret i32 0
}

; Function Attrs: argmemonly mustprogress nofree nosync nounwind willreturn
declare void @llvm.lifetime.start.p0i8(i64 immarg, i8* nocapture) #1

; Function Attrs: nofree nounwind
declare noundef i32 @__isoc99_scanf(i8* nocapture noundef readonly, ...) local_unnamed_addr #2

declare i32 @gets(...) local_unnamed_addr #3

; Function Attrs: argmemonly mustprogress nofree nounwind readonly willreturn
declare i64 @strlen(i8* nocapture) local_unnamed_addr #4

; Function Attrs: nofree nounwind
declare noundef i32 @printf(i8* nocapture noundef readonly, ...) local_unnamed_addr #2

; Function Attrs: argmemonly mustprogress nofree nosync nounwind willreturn
declare void @llvm.lifetime.end.p0i8(i64 immarg, i8* nocapture) #1

; Function Attrs: nofree nounwind
declare noundef i32 @getc(%struct._IO_FILE* nocapture noundef) local_unnamed_addr #2


!llvm.module.flags = !{!0, !1, !2, !3}
!llvm.ident = !{!4}

!0 = !{i32 1, !"wchar_size", i32 4}
!1 = !{i32 7, !"PIC Level", i32 2}
!2 = !{i32 7, !"PIE Level", i32 2}
!3 = !{i32 7, !"uwtable", i32 1}
!4 = !{!"clang version 13.0.0"}
!5 = !{!6, !6, i64 0}
!6 = !{!"any pointer", !7, i64 0}
!7 = !{!"omnipotent char", !8, i64 0}
!8 = !{!"Simple C/C++ TBAA"}
!9 = !{!10, !10, i64 0}
!10 = !{!"int", !7, i64 0}
!11 = !{!7, !7, i64 0}
!12 = distinct !{!12, !13}
!13 = !{!"llvm.loop.mustprogress"}
!14 = distinct !{!14, !13}
